; Function Attrs: nounwind uwtable
define i32 @H5Tget_inpad(i64 noundef %0) local_unnamed_addr #0 {
  %2 = alloca %struct.H5CX_node_t, align 8
  call void @llvm.lifetime.start.p0(i64 480, ptr nonnull %2) #4
  call void @llvm.memset.p0.i64(ptr noundef nonnull align 8 dereferenceable(480) %2, i8 0, i64 480, i1 false)
  %3 = load i8, ptr @H5_libinit_g, align 1, !tbaa !3, !range !7, !noundef !8
  %4 = trunc nuw i8 %3 to i1
  %5 = load i8, ptr @H5_libterm_g, align 1, !range !7
  %6 = trunc nuw i8 %5 to i1
  %7 = select i1 %4, i1 true, i1 %6
  br i1 %7, label %15, label %8, !prof !9

8:                                                ; preds = %1
  %9 = tail call i32 @H5_init_library() #4
  %10 = icmp slt i32 %9, 0
  br i1 %10, label %11, label %._crit_edge, !prof !10

._crit_edge:                                      ; preds = %8
  %.pre = load i8, ptr @H5_libterm_g, align 1, !range !7
  br label %15

11:                                               ; preds = %8
  %12 = load i64, ptr @H5E_FUNC_g, align 8, !tbaa !11
  %13 = load i64, ptr @H5E_CANTINIT_g, align 8, !tbaa !11
  %14 = tail call i32 (ptr, ptr, i32, i64, i64, ptr, ...) @H5E_printf_stack(ptr noundef nonnull @.str, ptr noundef nonnull @__func__.H5Tget_inpad, i32 noundef 293, i64 noundef %12, i64 noundef %13, ptr noundef nonnull @.str.1) #4
  br label %.thread26

15:                                               ; preds = %._crit_edge, %1
  %16 = phi i8 [ %.pre, %._crit_edge ], [ %5, %1 ]
  %17 = load i8, ptr @H5T_init_g, align 1, !tbaa !3, !range !7, !noundef !8
  %18 = trunc nuw i8 %17 to i1
  %19 = trunc nuw i8 %16 to i1
  %20 = select i1 %18, i1 true, i1 %19
  br i1 %20, label %28, label %21, !prof !9

21:                                               ; preds = %15
  store i8 1, ptr @H5T_init_g, align 1, !tbaa !3
  %22 = tail call i32 @H5T__init_package() #4
  %23 = icmp slt i32 %22, 0
  br i1 %23, label %24, label %28, !prof !13

24:                                               ; preds = %21
  store i8 0, ptr @H5T_init_g, align 1, !tbaa !3
  %25 = load i64, ptr @H5E_FUNC_g, align 8, !tbaa !11
  %26 = load i64, ptr @H5E_CANTINIT_g, align 8, !tbaa !11
  %27 = tail call i32 (ptr, ptr, i32, i64, i64, ptr, ...) @H5E_printf_stack(ptr noundef nonnull @.str, ptr noundef nonnull @__func__.H5Tget_inpad, i32 noundef 293, i64 noundef %25, i64 noundef %26, ptr noundef nonnull @.str.2) #4
  br label %.thread26

28:                                               ; preds = %15, %21
  %29 = call i32 @H5CX_push(ptr noundef nonnull %2) #4
  %30 = icmp slt i32 %29, 0
  br i1 %30, label %31, label %35, !prof !10

31:                                               ; preds = %28
  %32 = load i64, ptr @H5E_FUNC_g, align 8, !tbaa !11
  %33 = load i64, ptr @H5E_CANTSET_g, align 8, !tbaa !11
  %34 = call i32 (ptr, ptr, i32, i64, i64, ptr, ...) @H5E_printf_stack(ptr noundef nonnull @.str, ptr noundef nonnull @__func__.H5Tget_inpad, i32 noundef 293, i64 noundef %32, i64 noundef %33, ptr noundef nonnull @.str.3) #4
  br label %.thread26

35:                                               ; preds = %28
  %36 = call i32 @H5E_clear_stack() #4
  %37 = call ptr @H5I_object_verify(i64 noundef %0, i32 noundef 3) #4
  %38 = icmp eq ptr %37, null
  br i1 %38, label %39, label %.preheader, !prof !14

39:                                               ; preds = %35
  %40 = load i64, ptr @H5E_ARGS_g, align 8, !tbaa !11
  %41 = load i64, ptr @H5E_BADTYPE_g, align 8, !tbaa !11
  %42 = call i32 (ptr, ptr, i32, i64, i64, ptr, ...) @H5E_printf_stack(ptr noundef nonnull @.str, ptr noundef nonnull @__func__.H5Tget_inpad, i32 noundef 297, i64 noundef %40, i64 noundef %41, ptr noundef nonnull @.str.4) #4
  br label %.thread32

.preheader:                                       ; preds = %35, %.preheader
  %.014 = phi ptr [ %46, %.preheader ], [ %37, %35 ]
  %43 = getelementptr inbounds nuw i8, ptr %.014, i64 40
  %44 = load ptr, ptr %43, align 8, !tbaa !15
  %45 = getelementptr inbounds nuw i8, ptr %44, i64 32
  %46 = load ptr, ptr %45, align 8, !tbaa !26
  %.not = icmp eq ptr %46, null
  br i1 %.not, label %47, label %.preheader, !llvm.loop !40

47:                                               ; preds = %.preheader
  %48 = getelementptr inbounds nuw i8, ptr %44, i64 12
  %49 = load i32, ptr %48, align 4, !tbaa !31
  %.not17 = icmp eq i32 %49, 1
  br i1 %.not17, label %55, label %50, !prof !32

50:                                               ; preds = %47
  %51 = load i64, ptr @H5E_DATATYPE_g, align 8, !tbaa !11
  %52 = load i64, ptr @H5E_BADTYPE_g, align 8, !tbaa !11
  %53 = call i32 (ptr, ptr, i32, i64, i64, ptr, ...) @H5E_printf_stack(ptr noundef nonnull @.str, ptr noundef nonnull @__func__.H5Tget_inpad, i32 noundef 301, i64 noundef %51, i64 noundef %52, ptr noundef nonnull @.str.5) #4
  br label %.thread32

.thread32:                                        ; preds = %50, %39
  %54 = call i32 @H5CX_pop(i1 noundef zeroext true) #4
  br label %.thread26

55:                                               ; preds = %47
  %56 = getelementptr inbounds nuw i8, ptr %44, i64 132
  %57 = load i32, ptr %56, align 4, !tbaa !33
  %58 = call i32 @H5CX_pop(i1 noundef zeroext true) #4
  br label %60

.thread26:                                        ; preds = %31, %24, %11, %.thread32
  %59 = call i32 @H5E_dump_api_stack() #4
  br label %60

60:                                               ; preds = %55, %.thread26
  %.0132129 = phi i32 [ -1, %.thread26 ], [ %57, %55 ]
  call void @llvm.lifetime.end.p0(i64 480, ptr nonnull %2) #4
  ret i32 %.0132129
}